; Function Attrs: nounwind uwtable
define range(i32 0, 2) i32 @ossl_quic_wire_encode_frame_max_streams(ptr noundef %0, i8 noundef signext %1, i64 noundef %2) local_unnamed_addr #2 {
  %.not = icmp eq i8 %1, 0
  %4 = select i1 %.not, i64 18, i64 19
  %5 = tail call i32 @WPACKET_quic_write_vlint(ptr noundef %0, i64 noundef %4) #12
  %.not4 = icmp eq i32 %5, 0
  br i1 %.not4, label %8, label %6

6:                                                ; preds = %3
  %7 = tail call i32 @WPACKET_quic_write_vlint(ptr noundef %0, i64 noundef %2) #12
  %.not5 = icmp ne i32 %7, 0
  %spec.select = zext i1 %.not5 to i32
  br label %8

8:                                                ; preds = %6, %3
  %.0 = phi i32 [ 0, %3 ], [ %spec.select, %6 ]
  ret i32 %.0
}